target datalayout = "e-m:e-p270:32:32-p271:32:32-p272:64:64-i64:64-i128:128-f80:128-n8:16:32:64-S128"
target triple = "x86_64-unknown-linux-gnu"

%"class.v8::IndirectHandleBase" = type { ptr }
%"class.node::MemoryRetainer" = type { ptr }
%"class.node::AliasedBufferBase.12" = type { %"class.node::MemoryRetainer", ptr, i64, i64, ptr, %"class.v8::Global.13", ptr }
%"class.v8::Global.13" = type { %"class.v8::PersistentBase.14" }
%"class.v8::PersistentBase.14" = type { %"class.v8::IndirectHandleBase" }
%"class.node::process::BindingData" = type { %"class.node::SnapshotableObject.base", %"class.node::AliasedBufferBase.12", ptr }
%"class.node::SnapshotableObject.base" = type <{ %"class.node::BaseObject", i8 }>
%"class.node::BaseObject" = type { %"class.node::MemoryRetainer", %"class.v8::Global.258", ptr, ptr }
%"class.v8::Global.258" = type { %"class.v8::PersistentBase.259" }
%"class.v8::PersistentBase.259" = type { %"class.v8::IndirectHandleBase" }
%"class.node::AliasedBufferBase<unsigned int, v8::Uint32Array>::Reference" = type { ptr, i64 }

; Function Attrs: mustprogress nounwind uwtable
define linkonce_odr dso_local void @_ZN4node17AliasedBufferBaseIjN2v811Uint32ArrayEE8SetValueEmj(ptr noundef nonnull align 8 dereferenceable(56) %this, i64 noundef %index, i32 noundef %value) #4 comdat align 2 {
entry:
  %this.addr = alloca ptr, align 8
  %index.addr = alloca i64, align 8
  %value.addr = alloca i32, align 4
  store ptr %this, ptr %this.addr, align 8
  store i64 %index, ptr %index.addr, align 8
  store i32 %value, ptr %value.addr, align 4
  %this1 = load ptr, ptr %this.addr, align 8
  %0 = load i32, ptr %value.addr, align 4
  %buffer_ = getelementptr inbounds %"class.node::AliasedBufferBase.12", ptr %this1, i32 0, i32 4
  %1 = load ptr, ptr %buffer_, align 8
  %2 = load i64, ptr %index.addr, align 8
  %arrayidx = getelementptr inbounds i32, ptr %1, i64 %2
  store i32 %0, ptr %arrayidx, align 4
  ret void
}

; Function Attrs: mustprogress nounwind uwtable
define linkonce_odr dso_local void @_ZN4node17AliasedBufferBaseIjN2v811Uint32ArrayEE9ReferenceC2EPS3_m(ptr noundef nonnull align 8 dereferenceable(16) %this, ptr noundef %aliased_buffer, i64 noundef %index) unnamed_addr #4 comdat align 2 {
entry:
  %this.addr = alloca ptr, align 8
  %aliased_buffer.addr = alloca ptr, align 8
  %index.addr = alloca i64, align 8
  store ptr %this, ptr %this.addr, align 8
  store ptr %aliased_buffer, ptr %aliased_buffer.addr, align 8
  store i64 %index, ptr %index.addr, align 8
  %this1 = load ptr, ptr %this.addr, align 8
  %aliased_buffer_ = getelementptr inbounds %"class.node::AliasedBufferBase<unsigned int, v8::Uint32Array>::Reference", ptr %this1, i32 0, i32 0
  %0 = load ptr, ptr %aliased_buffer.addr, align 8
  store ptr %0, ptr %aliased_buffer_, align 8
  %index_ = getelementptr inbounds %"class.node::AliasedBufferBase<unsigned int, v8::Uint32Array>::Reference", ptr %this1, i32 0, i32 1
  %1 = load i64, ptr %index.addr, align 8
  store i64 %1, ptr %index_, align 8
  ret void
}

; Function Attrs: mustprogress nounwind uwtable
define linkonce_odr dso_local noundef nonnull align 8 dereferenceable(16) ptr @_ZN4node17AliasedBufferBaseIjN2v811Uint32ArrayEE9ReferenceaSERKj(ptr noundef nonnull align 8 dereferenceable(16) %this, ptr noundef nonnull align 4 dereferenceable(4) %val) #4 comdat align 2 {
entry:
  %this.addr = alloca ptr, align 8
  %val.addr = alloca ptr, align 8
  store ptr %this, ptr %this.addr, align 8
  store ptr %val, ptr %val.addr, align 8
  %this1 = load ptr, ptr %this.addr, align 8
  %aliased_buffer_ = getelementptr inbounds %"class.node::AliasedBufferBase<unsigned int, v8::Uint32Array>::Reference", ptr %this1, i32 0, i32 0
  %0 = load ptr, ptr %aliased_buffer_, align 8
  %index_ = getelementptr inbounds %"class.node::AliasedBufferBase<unsigned int, v8::Uint32Array>::Reference", ptr %this1, i32 0, i32 1
  %1 = load i64, ptr %index_, align 8
  %2 = load ptr, ptr %val.addr, align 8
  %3 = load i32, ptr %2, align 4
  call void @_ZN4node17AliasedBufferBaseIjN2v811Uint32ArrayEE8SetValueEmj(ptr noundef nonnull align 8 dereferenceable(56) %0, i64 noundef %1, i32 noundef %3)
  ret ptr %this1
}

; Function Attrs: mustprogress nounwind uwtable
define linkonce_odr dso_local void @_ZN4node17AliasedBufferBaseIjN2v811Uint32ArrayEEixEm(ptr noalias sret(%"class.node::AliasedBufferBase<unsigned int, v8::Uint32Array>::Reference") align 8 %agg.result, ptr noundef nonnull align 8 dereferenceable(56) %this, i64 noundef %index) #4 comdat align 2 {
entry:
  %result.ptr = alloca ptr, align 8
  %this.addr = alloca ptr, align 8
  %index.addr = alloca i64, align 8
  store ptr %agg.result, ptr %result.ptr, align 8
  store ptr %this, ptr %this.addr, align 8
  store i64 %index, ptr %index.addr, align 8
  %this1 = load ptr, ptr %this.addr, align 8
  %0 = load i64, ptr %index.addr, align 8
  call void @_ZN4node17AliasedBufferBaseIjN2v811Uint32ArrayEE9ReferenceC2EPS3_m(ptr noundef nonnull align 8 dereferenceable(16) %agg.result, ptr noundef %this1, i64 noundef %0)
  ret void
}

; Function Attrs: mustprogress nounwind uwtable
define dso_local void @_ZN4node7process11BindingData10NumberImplEPS1_(ptr noundef %receiver) #4 align 2 {
entry:
  %receiver.addr = alloca ptr, align 8
  %t = alloca i64, align 8
  %ref.tmp = alloca i32, align 4
  %ref.tmp1 = alloca %"class.node::AliasedBufferBase<unsigned int, v8::Uint32Array>::Reference", align 8
  %ref.tmp3 = alloca i32, align 4
  %ref.tmp6 = alloca %"class.node::AliasedBufferBase<unsigned int, v8::Uint32Array>::Reference", align 8
  %ref.tmp9 = alloca i32, align 4
  %ref.tmp11 = alloca %"class.node::AliasedBufferBase<unsigned int, v8::Uint32Array>::Reference", align 8
  store ptr %receiver, ptr %receiver.addr, align 8
  %call = call i64 @uv_hrtime()
  store i64 %call, ptr %t, align 8
  %0 = load i64, ptr %t, align 8
  %div = udiv i64 %0, 1000000000
  %shr = lshr i64 %div, 32
  %conv = trunc i64 %shr to i32
  store i32 %conv, ptr %ref.tmp, align 4
  %1 = load ptr, ptr %receiver.addr, align 8
  %hrtime_buffer_ = getelementptr inbounds %"class.node::process::BindingData", ptr %1, i32 0, i32 1
  call void @_ZN4node17AliasedBufferBaseIjN2v811Uint32ArrayEEixEm(ptr sret(%"class.node::AliasedBufferBase<unsigned int, v8::Uint32Array>::Reference") align 8 %ref.tmp1, ptr noundef nonnull align 8 dereferenceable(56) %hrtime_buffer_, i64 noundef 0)
  %call2 = call noundef nonnull align 8 dereferenceable(16) ptr @_ZN4node17AliasedBufferBaseIjN2v811Uint32ArrayEE9ReferenceaSERKj(ptr noundef nonnull align 8 dereferenceable(16) %ref.tmp1, ptr noundef nonnull align 4 dereferenceable(4) %ref.tmp)
  %2 = load i64, ptr %t, align 8
  %div4 = udiv i64 %2, 1000000000
  %and = and i64 %div4, 4294967295
  %conv5 = trunc i64 %and to i32
  store i32 %conv5, ptr %ref.tmp3, align 4
  %3 = load ptr, ptr %receiver.addr, align 8
  %hrtime_buffer_7 = getelementptr inbounds %"class.node::process::BindingData", ptr %3, i32 0, i32 1
  call void @_ZN4node17AliasedBufferBaseIjN2v811Uint32ArrayEEixEm(ptr sret(%"class.node::AliasedBufferBase<unsigned int, v8::Uint32Array>::Reference") align 8 %ref.tmp6, ptr noundef nonnull align 8 dereferenceable(56) %hrtime_buffer_7, i64 noundef 1)
  %call8 = call noundef nonnull align 8 dereferenceable(16) ptr @_ZN4node17AliasedBufferBaseIjN2v811Uint32ArrayEE9ReferenceaSERKj(ptr noundef nonnull align 8 dereferenceable(16) %ref.tmp6, ptr noundef nonnull align 4 dereferenceable(4) %ref.tmp3)
  %4 = load i64, ptr %t, align 8
  %rem = urem i64 %4, 1000000000
  %conv10 = trunc i64 %rem to i32
  store i32 %conv10, ptr %ref.tmp9, align 4
  %5 = load ptr, ptr %receiver.addr, align 8
  %hrtime_buffer_12 = getelementptr inbounds %"class.node::process::BindingData", ptr %5, i32 0, i32 1
  call void @_ZN4node17AliasedBufferBaseIjN2v811Uint32ArrayEEixEm(ptr sret(%"class.node::AliasedBufferBase<unsigned int, v8::Uint32Array>::Reference") align 8 %ref.tmp11, ptr noundef nonnull align 8 dereferenceable(56) %hrtime_buffer_12, i64 noundef 2)
  %call13 = call noundef nonnull align 8 dereferenceable(16) ptr @_ZN4node17AliasedBufferBaseIjN2v811Uint32ArrayEE9ReferenceaSERKj(ptr noundef nonnull align 8 dereferenceable(16) %ref.tmp11, ptr noundef nonnull align 4 dereferenceable(4) %ref.tmp9)
  ret void
}