; Function Attrs: mustprogress nounwind uwtable
define dso_local void @_ZN4node7process11BindingData10NumberImplEPS1_(ptr nocapture noundef readonly %receiver) local_unnamed_addr #3 align 2 {
entry:
  %call = tail call i64 @uv_hrtime() #25
  %div = udiv i64 %call, 1000000000
  %shr = lshr i64 %div, 32
  %conv = trunc i64 %shr to i32
  %buffer_.i.i = getelementptr inbounds i8, ptr %receiver, i64 72
  %0 = load ptr, ptr %buffer_.i.i, align 8
  store i32 %conv, ptr %0, align 4
  %conv5 = trunc i64 %div to i32
  %1 = load ptr, ptr %buffer_.i.i, align 8
  %arrayidx.i.i8 = getelementptr inbounds i8, ptr %1, i64 4
  store i32 %conv5, ptr %arrayidx.i.i8, align 4
  %rem = urem i64 %call, 1000000000
  %conv10 = trunc i64 %rem to i32
  %2 = load ptr, ptr %buffer_.i.i, align 8
  %arrayidx.i.i12 = getelementptr inbounds i8, ptr %2, i64 8
  store i32 %conv10, ptr %arrayidx.i.i12, align 4
  ret void
}